; Function Attrs: mustprogress nofree norecurse nosync nounwind willreturn memory(read, argmem: readwrite, inaccessiblemem: none) uwtable
define hidden noundef ptr @_ZN5ceres8internal28BlockRandomAccessDenseMatrix7GetCellEiiPiS2_S2_S2_(ptr nocapture noundef nonnull readonly align 8 dereferenceable(64) %0, i32 noundef %1, i32 noundef %2, ptr nocapture noundef writeonly %3, ptr nocapture noundef writeonly %4, ptr nocapture noundef writeonly %5, ptr nocapture noundef writeonly %6) unnamed_addr #2 align 2 {
  %8 = getelementptr inbounds i8, ptr %0, i64 8
  %9 = sext i32 %1 to i64
  %10 = load ptr, ptr %8, align 8
  %11 = getelementptr inbounds %"struct.ceres::internal::Block", ptr %10, i64 %9, i32 1
  %12 = load i32, ptr %11, align 4
  store i32 %12, ptr %3, align 4
  %13 = sext i32 %2 to i64
  %14 = load ptr, ptr %8, align 8
  %15 = getelementptr inbounds %"struct.ceres::internal::Block", ptr %14, i64 %13, i32 1
  %16 = load i32, ptr %15, align 4
  store i32 %16, ptr %4, align 4
  %17 = getelementptr inbounds i8, ptr %0, i64 44
  %18 = load i32, ptr %17, align 4
  store i32 %18, ptr %5, align 4
  store i32 %18, ptr %6, align 4
  %19 = getelementptr inbounds i8, ptr %0, i64 56
  %20 = getelementptr inbounds i8, ptr %0, i64 16
  %21 = load ptr, ptr %20, align 8
  %22 = load ptr, ptr %8, align 8
  %23 = ptrtoint ptr %21 to i64
  %24 = ptrtoint ptr %22 to i64
  %25 = sub i64 %23, %24
  %26 = ashr exact i64 %25, 3
  %27 = mul i64 %26, %9
  %28 = load ptr, ptr %19, align 8
  %29 = getelementptr %"struct.ceres::internal::CellInfo", ptr %28, i64 %27
  %30 = getelementptr %"struct.ceres::internal::CellInfo", ptr %29, i64 %13
  ret ptr %30
}